target datalayout = "e-m:e-p270:32:32-p271:32:32-p272:64:64-i64:64-i128:128-f80:128-n8:16:32:64-S128"
target triple = "x86_64-unknown-linux-gnu"

%"class.std::function" = type { %"class.std::_Function_base", ptr }
%"class.std::_Function_base" = type { %"union.std::_Any_data", ptr }
%"union.std::_Any_data" = type { %"union.std::_Nocopy_types" }
%"union.std::_Nocopy_types" = type { { i64, i64 } }
%"class.grpc_core::ChannelArgs" = type { %"class.grpc_core::AVL" }
%"class.grpc_core::AVL" = type { %"class.grpc_core::RefCountedPtr" }
%"class.grpc_core::RefCountedPtr" = type { ptr }
%"class.grpc_core::(anonymous namespace)::Chttp2ServerListener" = type { %"class.grpc_core::Server::ListenerInterface", ptr, ptr, %struct.grpc_resolved_address, %"class.std::function", ptr, %"class.grpc_core::ChannelArgs", %"class.absl::lts_20230802::Mutex", %"class.grpc_core::RefCountedPtr.65", i8, %"class.absl::lts_20230802::CondVar", i8, i8, %"class.std::map", %struct.grpc_closure, ptr, %"class.grpc_core::RefCountedPtr.72", %"class.std::shared_ptr" }
%"class.grpc_core::Server::ListenerInterface" = type { %"class.grpc_core::Orphanable" }
%"class.grpc_core::Orphanable" = type { ptr }
%struct.grpc_resolved_address = type { [128 x i8], i32 }
%"class.absl::lts_20230802::Mutex" = type { %"struct.std::atomic" }
%"struct.std::atomic" = type { %"struct.std::__atomic_base" }
%"struct.std::__atomic_base" = type { i64 }
%"class.grpc_core::RefCountedPtr.65" = type { ptr }
%"class.absl::lts_20230802::CondVar" = type { %"struct.std::atomic" }
%"class.std::map" = type { %"class.std::_Rb_tree" }
%"class.std::_Rb_tree" = type { %"struct.std::_Rb_tree<grpc_core::(anonymous namespace)::Chttp2ServerListener::ActiveConnection *, std::pair<grpc_core::(anonymous namespace)::Chttp2ServerListener::ActiveConnection *const, std::unique_ptr<grpc_core::(anonymous namespace)::Chttp2ServerListener::ActiveConnection, grpc_core::OrphanableDelete>>, std::_Select1st<std::pair<grpc_core::(anonymous namespace)::Chttp2ServerListener::ActiveConnection *const, std::unique_ptr<grpc_core::(anonymous namespace)::Chttp2ServerListener::ActiveConnection, grpc_core::OrphanableDelete>>>, std::less<grpc_core::(anonymous namespace)::Chttp2ServerListener::ActiveConnection *>>::_Rb_tree_impl" }
%"struct.std::_Rb_tree<grpc_core::(anonymous namespace)::Chttp2ServerListener::ActiveConnection *, std::pair<grpc_core::(anonymous namespace)::Chttp2ServerListener::ActiveConnection *const, std::unique_ptr<grpc_core::(anonymous namespace)::Chttp2ServerListener::ActiveConnection, grpc_core::OrphanableDelete>>, std::_Select1st<std::pair<grpc_core::(anonymous namespace)::Chttp2ServerListener::ActiveConnection *const, std::unique_ptr<grpc_core::(anonymous namespace)::Chttp2ServerListener::ActiveConnection, grpc_core::OrphanableDelete>>>, std::less<grpc_core::(anonymous namespace)::Chttp2ServerListener::ActiveConnection *>>::_Rb_tree_impl" = type { %"struct.std::_Rb_tree_key_compare", %"struct.std::_Rb_tree_header" }
%"struct.std::_Rb_tree_key_compare" = type { %"struct.std::less" }
%"struct.std::less" = type { i8 }
%"struct.std::_Rb_tree_header" = type { %"struct.std::_Rb_tree_node_base", i64 }
%"struct.std::_Rb_tree_node_base" = type { i32, ptr, ptr, ptr }
%struct.grpc_closure = type { %union.anon.70, ptr, ptr, %union.anon.71 }
%union.anon.70 = type { ptr }
%union.anon.71 = type { i64 }
%"class.grpc_core::RefCountedPtr.72" = type { ptr }
%"class.std::shared_ptr" = type { %"class.std::__shared_ptr" }
%"class.std::__shared_ptr" = type { ptr, %"class.std::__shared_count" }
%"class.std::__shared_count" = type { ptr }
%"class.absl::lts_20230802::MutexLock" = type { ptr }

; Function Attrs: mustprogress nounwind uwtable
define linkonce_odr void @_ZN4absl12lts_202308029MutexLockD2Ev(ptr noundef nonnull align 8 dereferenceable(8) %this) unnamed_addr #5 comdat align 2 personality ptr @__gxx_personality_v0 {
entry:
  %this.addr = alloca ptr, align 8
  store ptr %this, ptr %this.addr, align 8
  %this1 = load ptr, ptr %this.addr, align 8
  %mu_ = getelementptr inbounds %"class.absl::lts_20230802::MutexLock", ptr %this1, i32 0, i32 0
  %0 = load ptr, ptr %mu_, align 8
  invoke void @_ZN4absl12lts_202308025Mutex6UnlockEv(ptr noundef nonnull align 8 dereferenceable(8) %0)
          to label %invoke.cont unwind label %terminate.lpad

invoke.cont:                                      ; preds = %entry
  ret void

terminate.lpad:                                   ; preds = %entry
  %1 = landingpad { ptr, i32 }
          catch ptr null
  %2 = extractvalue { ptr, i32 } %1, 0
  call void @__clang_call_terminate(ptr %2) #18
  unreachable
}

; Function Attrs: mustprogress uwtable
define linkonce_odr void @_ZN4absl12lts_202308029MutexLockC2EPNS0_5MutexE(ptr noundef nonnull align 8 dereferenceable(8) %this, ptr noundef %mu) unnamed_addr #4 comdat align 2 {
entry:
  %this.addr = alloca ptr, align 8
  %mu.addr = alloca ptr, align 8
  store ptr %this, ptr %this.addr, align 8
  store ptr %mu, ptr %mu.addr, align 8
  %this1 = load ptr, ptr %this.addr, align 8
  %mu_ = getelementptr inbounds %"class.absl::lts_20230802::MutexLock", ptr %this1, i32 0, i32 0
  %0 = load ptr, ptr %mu.addr, align 8
  store ptr %0, ptr %mu_, align 8
  %mu_2 = getelementptr inbounds %"class.absl::lts_20230802::MutexLock", ptr %this1, i32 0, i32 0
  %1 = load ptr, ptr %mu_2, align 8
  call void @_ZN4absl12lts_202308025Mutex4LockEv(ptr noundef nonnull align 8 dereferenceable(8) %1)
  ret void
}

; Function Attrs: mustprogress uwtable
define internal void @_ZN9grpc_core12_GLOBAL__N_120Chttp2ServerListener16SetOnDestroyDoneEP12grpc_closure(ptr noundef nonnull align 8 dereferenceable(360) %this, ptr noundef %on_destroy_done) unnamed_addr #4 align 2 {
entry:
  %this.addr = alloca ptr, align 8
  %on_destroy_done.addr = alloca ptr, align 8
  %lock = alloca %"class.absl::lts_20230802::MutexLock", align 8
  store ptr %this, ptr %this.addr, align 8
  store ptr %on_destroy_done, ptr %on_destroy_done.addr, align 8
  %this1 = load ptr, ptr %this.addr, align 8
  %mu_ = getelementptr inbounds %"class.grpc_core::(anonymous namespace)::Chttp2ServerListener", ptr %this1, i32 0, i32 7
  call void @_ZN4absl12lts_202308029MutexLockC2EPNS0_5MutexE(ptr noundef nonnull align 8 dereferenceable(8) %lock, ptr noundef %mu_)
  %0 = load ptr, ptr %on_destroy_done.addr, align 8
  %on_destroy_done_ = getelementptr inbounds %"class.grpc_core::(anonymous namespace)::Chttp2ServerListener", ptr %this1, i32 0, i32 15
  store ptr %0, ptr %on_destroy_done_, align 8
  call void @_ZN4absl12lts_202308029MutexLockD2Ev(ptr noundef nonnull align 8 dereferenceable(8) %lock) #3
  ret void
}