; Function Attrs: mustprogress uwtable
define internal void @_ZN9grpc_core12_GLOBAL__N_120Chttp2ServerListener16SetOnDestroyDoneEP12grpc_closure(ptr noundef nonnull align 8 dereferenceable(360) %this, ptr noundef %on_destroy_done) unnamed_addr #3 align 2 personality ptr @__gxx_personality_v0 {
entry:
  %mu_ = getelementptr inbounds i8, ptr %this, i64 208
  tail call void @_ZN4absl12lts_202308025Mutex4LockEv(ptr noundef nonnull align 8 dereferenceable(8) %mu_)
  %on_destroy_done_ = getelementptr inbounds i8, ptr %this, i64 328
  store ptr %on_destroy_done, ptr %on_destroy_done_, align 8
  invoke void @_ZN4absl12lts_202308025Mutex6UnlockEv(ptr noundef nonnull align 8 dereferenceable(8) %mu_)
          to label %_ZN4absl12lts_202308029MutexLockD2Ev.exit unwind label %terminate.lpad.i

terminate.lpad.i:                                 ; preds = %entry
  %0 = landingpad { ptr, i32 }
          catch ptr null
  %1 = extractvalue { ptr, i32 } %0, 0
  tail call void @__clang_call_terminate(ptr %1) #24
  unreachable

_ZN4absl12lts_202308029MutexLockD2Ev.exit:        ; preds = %entry
  ret void
}